target datalayout = "e-m:e-p270:32:32-p271:32:32-p272:64:64-i64:64-i128:128-f80:128-n8:16:32:64-S128"
target triple = "x86_64-pc-linux-gnu"

%struct.deal = type { i32, i32, [3 x i32], [3 x i32], [4 x [4 x i32]] }
%struct.dealPBN = type { i32, i32, [3 x i32], [3 x i32], [80 x i8] }

; Function Attrs: mustprogress uwtable
define i32 @SolveBoardPBN(ptr noundef byval(%struct.dealPBN) align 8 %0, i32 noundef %1, i32 noundef %2, i32 noundef %3, ptr noundef %4, i32 noundef %5) #4 {
  %7 = alloca i32, align 4
  %8 = alloca i32, align 4
  %9 = alloca i32, align 4
  %10 = alloca i32, align 4
  %11 = alloca ptr, align 8
  %12 = alloca i32, align 4
  %13 = alloca %struct.deal, align 4
  %14 = alloca i32, align 4
  %15 = alloca i32, align 4
  %16 = alloca %struct.deal, align 8
  store i32 %1, ptr %8, align 4
  store i32 %2, ptr %9, align 4
  store i32 %3, ptr %10, align 4
  store ptr %4, ptr %11, align 8
  store i32 %5, ptr %12, align 4
  %17 = getelementptr inbounds nuw %struct.dealPBN, ptr %0, i32 0, i32 4
  %18 = getelementptr inbounds [80 x i8], ptr %17, i64 0, i64 0
  %19 = getelementptr inbounds nuw %struct.deal, ptr %13, i32 0, i32 4
  %20 = getelementptr inbounds [4 x [4 x i32]], ptr %19, i64 0, i64 0
  %21 = call noundef i32 @_Z14ConvertFromPBNPKcPA4_j(ptr noundef %18, ptr noundef %20)
  %22 = icmp ne i32 %21, 1
  br i1 %22, label %23, label %24

23:                                               ; preds = %6
  store i32 -99, ptr %7, align 4
  br label %64

24:                                               ; preds = %6
  store i32 0, ptr %14, align 4
  br label %25

25:                                               ; preds = %47, %24
  %26 = load i32, ptr %14, align 4
  %27 = icmp sle i32 %26, 2
  br i1 %27, label %28, label %50

28:                                               ; preds = %25
  %29 = getelementptr inbounds nuw %struct.dealPBN, ptr %0, i32 0, i32 3
  %30 = load i32, ptr %14, align 4
  %31 = sext i32 %30 to i64
  %32 = getelementptr inbounds [3 x i32], ptr %29, i64 0, i64 %31
  %33 = load i32, ptr %32, align 4
  %34 = getelementptr inbounds nuw %struct.deal, ptr %13, i32 0, i32 3
  %35 = load i32, ptr %14, align 4
  %36 = sext i32 %35 to i64
  %37 = getelementptr inbounds [3 x i32], ptr %34, i64 0, i64 %36
  store i32 %33, ptr %37, align 4
  %38 = getelementptr inbounds nuw %struct.dealPBN, ptr %0, i32 0, i32 2
  %39 = load i32, ptr %14, align 4
  %40 = sext i32 %39 to i64
  %41 = getelementptr inbounds [3 x i32], ptr %38, i64 0, i64 %40
  %42 = load i32, ptr %41, align 4
  %43 = getelementptr inbounds nuw %struct.deal, ptr %13, i32 0, i32 2
  %44 = load i32, ptr %14, align 4
  %45 = sext i32 %44 to i64
  %46 = getelementptr inbounds [3 x i32], ptr %43, i64 0, i64 %45
  store i32 %42, ptr %46, align 4
  br label %47

47:                                               ; preds = %28
  %48 = load i32, ptr %14, align 4
  %49 = add nsw i32 %48, 1
  store i32 %49, ptr %14, align 4
  br label %25, !llvm.loop !8

50:                                               ; preds = %25
  %51 = getelementptr inbounds nuw %struct.dealPBN, ptr %0, i32 0, i32 1
  %52 = load i32, ptr %51, align 4
  %53 = getelementptr inbounds nuw %struct.deal, ptr %13, i32 0, i32 1
  store i32 %52, ptr %53, align 4
  %54 = getelementptr inbounds nuw %struct.dealPBN, ptr %0, i32 0, i32 0
  %55 = load i32, ptr %54, align 8
  %56 = getelementptr inbounds nuw %struct.deal, ptr %13, i32 0, i32 0
  store i32 %55, ptr %56, align 4
  call void @llvm.memcpy.p0.p0.i64(ptr align 4 %16, ptr align 4 %13, i64 96, i1 false)
  %57 = load i32, ptr %8, align 4
  %58 = load i32, ptr %9, align 4
  %59 = load i32, ptr %10, align 4
  %60 = load ptr, ptr %11, align 8
  %61 = load i32, ptr %12, align 4
  %62 = call i32 @SolveBoard(ptr noundef byval(%struct.deal) align 8 %16, i32 noundef %57, i32 noundef %58, i32 noundef %59, ptr noundef %60, i32 noundef %61)
  store i32 %62, ptr %15, align 4
  %63 = load i32, ptr %15, align 4
  store i32 %63, ptr %7, align 4
  br label %64

64:                                               ; preds = %50, %23
  %65 = load i32, ptr %7, align 4
  ret i32 %65
}