; Function Attrs: mustprogress uwtable
define i32 @SolveBoardPBN(ptr noundef byval(%struct.dealPBN) align 8 %0, i32 noundef %1, i32 noundef %2, i32 noundef %3, ptr noundef %4, i32 noundef %5) local_unnamed_addr #3 {
  %7 = alloca %struct.deal, align 8
  %8 = getelementptr inbounds nuw i8, ptr %0, i64 32
  %9 = getelementptr inbounds nuw i8, ptr %7, i64 32
  %10 = call noundef i32 @_Z14ConvertFromPBNPKcPA4_j(ptr noundef nonnull %8, ptr noundef nonnull %9)
  %.not = icmp eq i32 %10, 1
  br i1 %.not, label %.preheader, label %25

.preheader:                                       ; preds = %6
  %11 = getelementptr inbounds nuw i8, ptr %0, i64 20
  %12 = getelementptr inbounds nuw i8, ptr %7, i64 20
  %13 = getelementptr inbounds nuw i8, ptr %0, i64 8
  %14 = getelementptr inbounds nuw i8, ptr %7, i64 8
  call void @llvm.memcpy.p0.p0.i64(ptr noundef nonnull align 8 dereferenceable(12) %14, ptr noundef nonnull align 8 dereferenceable(12) %13, i64 12, i1 false)
  br label %15

15:                                               ; preds = %.preheader, %15
  %indvars.iv = phi i64 [ 0, %.preheader ], [ %indvars.iv.next, %15 ]
  %16 = getelementptr inbounds nuw [3 x i32], ptr %11, i64 0, i64 %indvars.iv
  %17 = load i32, ptr %16, align 4
  %18 = getelementptr inbounds nuw [3 x i32], ptr %12, i64 0, i64 %indvars.iv
  store i32 %17, ptr %18, align 4
  %indvars.iv.next = add nuw nsw i64 %indvars.iv, 1
  %exitcond.not = icmp eq i64 %indvars.iv.next, 3
  br i1 %exitcond.not, label %19, label %15, !llvm.loop !8

19:                                               ; preds = %15
  %20 = getelementptr inbounds nuw i8, ptr %0, i64 4
  %21 = load i32, ptr %20, align 4
  %22 = getelementptr inbounds nuw i8, ptr %7, i64 4
  store i32 %21, ptr %22, align 4
  %23 = load i32, ptr %0, align 8
  store i32 %23, ptr %7, align 8
  %24 = call i32 @SolveBoard(ptr noundef nonnull byval(%struct.deal) align 8 %7, i32 noundef %1, i32 noundef %2, i32 noundef %3, ptr noundef %4, i32 noundef %5)
  br label %25

25:                                               ; preds = %6, %19
  %.0 = phi i32 [ %24, %19 ], [ -99, %6 ]
  ret i32 %.0
}